; ModuleID = '15/717.c'
source_filename = "15/717.c"
target datalayout = "e-m:e-p270:32:32-p271:32:32-p272:64:64-i64:64-f80:128-n8:16:32:64-S128"
target triple = "x86_64-pc-linux-gnu"

@.str = private unnamed_addr constant [3 x i8] c"%d\00", align 1

; Function Attrs: noinline nounwind uwtable
define dso_local i32 @main() #0 {
  %1 = alloca i32, align 4
  %2 = alloca [100 x [100 x i32]], align 16
  %3 = alloca i32, align 4
  %4 = alloca i32, align 4
  %5 = alloca i32, align 4
  %6 = alloca i32, align 4
  %7 = alloca i32, align 4
  %8 = alloca i32, align 4
  %9 = alloca i32, align 4
  %10 = alloca i32, align 4
  %11 = alloca i32, align 4
  %12 = alloca i32, align 4
  store i32 0, i32* %1, align 4
  %13 = bitcast [100 x [100 x i32]]* %2 to i8*
  call void @llvm.memset.p0i8.i64(i8* align 16 %13, i8 0, i64 40000, i1 false)
  %14 = bitcast i8* %13 to <{ <{ i32, [99 x i32] }>, [99 x <{ i32, [99 x i32] }>] }>*
  %15 = getelementptr inbounds <{ <{ i32, [99 x i32] }>, [99 x <{ i32, [99 x i32] }>] }>, <{ <{ i32, [99 x i32] }>, [99 x <{ i32, [99 x i32] }>] }>* %14, i32 0, i32 0
  %16 = getelementptr inbounds <{ i32, [99 x i32] }>, <{ i32, [99 x i32] }>* %15, i32 0, i32 0
  store i32 255, i32* %16, align 16
  store i32 0, i32* %4, align 4
  store i32 0, i32* %5, align 4
  %17 = call i32 (i8*, ...) @__isoc99_scanf(i8* getelementptr inbounds ([3 x i8], [3 x i8]* @.str, i64 0, i64 0), i32* %3)
  store i32 0, i32* %10, align 4
  br label %18

18:                                               ; preds = %39, %0
  %19 = load i32, i32* %10, align 4
  %20 = load i32, i32* %3, align 4
  %21 = icmp slt i32 %19, %20
  br i1 %21, label %22, label %42

22:                                               ; preds = %18
  store i32 0, i32* %11, align 4
  br label %23

23:                                               ; preds = %35, %22
  %24 = load i32, i32* %11, align 4
  %25 = load i32, i32* %3, align 4
  %26 = icmp slt i32 %24, %25
  br i1 %26, label %27, label %38

27:                                               ; preds = %23
  %28 = load i32, i32* %10, align 4
  %29 = sext i32 %28 to i64
  %30 = getelementptr inbounds [100 x [100 x i32]], [100 x [100 x i32]]* %2, i64 0, i64 %29
  %31 = load i32, i32* %11, align 4
  %32 = sext i32 %31 to i64
  %33 = getelementptr inbounds [100 x i32], [100 x i32]* %30, i64 0, i64 %32
  %34 = call i32 (i8*, ...) @__isoc99_scanf(i8* getelementptr inbounds ([3 x i8], [3 x i8]* @.str, i64 0, i64 0), i32* %33)
  br label %35

35:                                               ; preds = %27
  %36 = load i32, i32* %11, align 4
  %37 = add nsw i32 %36, 1
  store i32 %37, i32* %11, align 4
  br label %23

38:                                               ; preds = %23
  br label %39

39:                                               ; preds = %38
  %40 = load i32, i32* %10, align 4
  %41 = add nsw i32 %40, 1
  store i32 %41, i32* %10, align 4
  br label %18

42:                                               ; preds = %18
  store i32 0, i32* %10, align 4
  br label %43

43:                                               ; preds = %74, %42
  %44 = load i32, i32* %10, align 4
  %45 = load i32, i32* %3, align 4
  %46 = icmp slt i32 %44, %45
  br i1 %46, label %47, label %77

47:                                               ; preds = %43
  store i32 0, i32* %11, align 4
  br label %48

48:                                               ; preds = %65, %47
  %49 = load i32, i32* %11, align 4
  %50 = load i32, i32* %3, align 4
  %51 = icmp slt i32 %49, %50
  br i1 %51, label %52, label %68

52:                                               ; preds = %48
  %53 = load i32, i32* %10, align 4
  %54 = sext i32 %53 to i64
  %55 = getelementptr inbounds [100 x [100 x i32]], [100 x [100 x i32]]* %2, i64 0, i64 %54
  %56 = load i32, i32* %11, align 4
  %57 = sext i32 %56 to i64
  %58 = getelementptr inbounds [100 x i32], [100 x i32]* %55, i64 0, i64 %57
  %59 = load i32, i32* %58, align 4
  %60 = icmp eq i32 %59, 0
  br i1 %60, label %61, label %64

61:                                               ; preds = %52
  %62 = load i32, i32* %10, align 4
  store i32 %62, i32* %6, align 4
  %63 = load i32, i32* %11, align 4
  store i32 %63, i32* %7, align 4
  store i32 1, i32* %4, align 4
  br label %68

64:                                               ; preds = %52
  br label %65

65:                                               ; preds = %64
  %66 = load i32, i32* %11, align 4
  %67 = add nsw i32 %66, 1
  store i32 %67, i32* %11, align 4
  br label %48

68:                                               ; preds = %61, %48
  %69 = load i32, i32* %4, align 4
  %70 = icmp eq i32 %69, 1
  br i1 %70, label %71, label %72

71:                                               ; preds = %68
  br label %77

72:                                               ; preds = %68
  br label %73

73:                                               ; preds = %72
  br label %74

74:                                               ; preds = %73
  %75 = load i32, i32* %10, align 4
  %76 = add nsw i32 %75, 1
  store i32 %76, i32* %10, align 4
  br label %43

77:                                               ; preds = %71, %43
  %78 = load i32, i32* %3, align 4
  %79 = sub nsw i32 %78, 1
  store i32 %79, i32* %10, align 4
  br label %80

80:                                               ; preds = %111, %77
  %81 = load i32, i32* %10, align 4
  %82 = icmp sge i32 %81, 0
  br i1 %82, label %83, label %114

83:                                               ; preds = %80
  %84 = load i32, i32* %3, align 4
  %85 = sub nsw i32 %84, 1
  store i32 %85, i32* %11, align 4
  br label %86

86:                                               ; preds = %102, %83
  %87 = load i32, i32* %11, align 4
  %88 = icmp sge i32 %87, 0
  br i1 %88, label %89, label %105

89:                                               ; preds = %86
  %90 = load i32, i32* %10, align 4
  %91 = sext i32 %90 to i64
  %92 = getelementptr inbounds [100 x [100 x i32]], [100 x [100 x i32]]* %2, i64 0, i64 %91
  %93 = load i32, i32* %11, align 4
  %94 = sext i32 %93 to i64
  %95 = getelementptr inbounds [100 x i32], [100 x i32]* %92, i64 0, i64 %94
  %96 = load i32, i32* %95, align 4
  %97 = icmp eq i32 %96, 0
  br i1 %97, label %98, label %101

98:                                               ; preds = %89
  %99 = load i32, i32* %10, align 4
  store i32 %99, i32* %8, align 4
  %100 = load i32, i32* %11, align 4
  store i32 %100, i32* %9, align 4
  store i32 1, i32* %5, align 4
  br label %105

101:                                              ; preds = %89
  br label %102

102:                                              ; preds = %101
  %103 = load i32, i32* %11, align 4
  %104 = add nsw i32 %103, -1
  store i32 %104, i32* %11, align 4
  br label %86

105:                                              ; preds = %98, %86
  %106 = load i32, i32* %5, align 4
  %107 = icmp eq i32 %106, 1
  br i1 %107, label %108, label %109

108:                                              ; preds = %105
  br label %114

109:                                              ; preds = %105
  br label %110

110:                                              ; preds = %109
  br label %111

111:                                              ; preds = %110
  %112 = load i32, i32* %10, align 4
  %113 = add nsw i32 %112, -1
  store i32 %113, i32* %10, align 4
  br label %80

114:                                              ; preds = %108, %80
  %115 = load i32, i32* %9, align 4
  %116 = load i32, i32* %7, align 4
  %117 = sub nsw i32 %115, %116
  %118 = sub nsw i32 %117, 1
  %119 = load i32, i32* %8, align 4
  %120 = load i32, i32* %6, align 4
  %121 = sub nsw i32 %119, %120
  %122 = sub nsw i32 %121, 1
  %123 = mul nsw i32 %118, %122
  store i32 %123, i32* %12, align 4
  %124 = load i32, i32* %12, align 4
  %125 = call i32 (i8*, ...) @printf(i8* getelementptr inbounds ([3 x i8], [3 x i8]* @.str, i64 0, i64 0), i32 %124)
  ret i32 0
}

; Function Attrs: argmemonly nounwind willreturn
declare void @llvm.memset.p0i8.i64(i8* nocapture writeonly, i8, i64, i1 immarg) #1

declare dso_local i32 @__isoc99_scanf(i8*, ...) #2

declare dso_local i32 @printf(i8*, ...) #2


!llvm.module.flags = !{!0}
!llvm.ident = !{!1}

!0 = !{i32 1, !"wchar_size", i32 4}
!1 = !{!"clang version 10.0.0-4ubuntu1 "}
